; Function Attrs: nounwind sspstrong uwtable
define internal range(i64 1, 512) i64 @strscan_peek_byte(i64 noundef %0) #0 {
  %2 = tail call ptr @rb_check_typeddata(i64 noundef %0, ptr noundef nonnull @strscanner_type) #12
  %3 = getelementptr inbounds nuw i8, ptr %2, i64 8
  %4 = load i64, ptr %3, align 8, !tbaa !23
  %5 = icmp eq i64 %4, 4
  br i1 %5, label %6, label %8

6:                                                ; preds = %1
  %7 = load i64, ptr @rb_eArgError, align 8, !tbaa !10
  tail call void (i64, ptr, ...) @rb_raise(i64 noundef %7, ptr noundef nonnull @.str.66) #14
  unreachable

8:                                                ; preds = %1
  %9 = getelementptr inbounds nuw i8, ptr %2, i64 24
  %10 = load i64, ptr %9, align 8, !tbaa !29
  %11 = inttoptr i64 %4 to ptr
  %12 = getelementptr inbounds nuw i8, ptr %11, i64 16
  %13 = load i64, ptr %12, align 8, !tbaa !32
  %.not = icmp slt i64 %10, %13
  br i1 %.not, label %14, label %24

14:                                               ; preds = %8
  %15 = load i64, ptr %11, align 8, !tbaa !34, !noalias !58
  %16 = and i64 %15, 8192
  %.not.i.i = icmp eq i64 %16, 0
  %17 = getelementptr inbounds nuw i8, ptr %11, i64 24
  br i1 %.not.i.i, label %RSTRING_PTR.exit, label %18

18:                                               ; preds = %14
  %.sroa.2.0.copyload.i = load ptr, ptr %17, align 8
  br label %RSTRING_PTR.exit

RSTRING_PTR.exit:                                 ; preds = %14, %18
  %.sroa.2.0.i = phi ptr [ %.sroa.2.0.copyload.i, %18 ], [ %17, %14 ]
  %19 = getelementptr inbounds i8, ptr %.sroa.2.0.i, i64 %10
  %20 = load i8, ptr %19, align 1, !tbaa !54
  %21 = zext i8 %20 to i64
  %22 = shl nuw nsw i64 %21, 1
  %23 = or disjoint i64 %22, 1
  br label %24

24:                                               ; preds = %8, %RSTRING_PTR.exit
  %.0 = phi i64 [ %23, %RSTRING_PTR.exit ], [ 4, %8 ]
  ret i64 %.0
}